target datalayout = "e-m:e-p270:32:32-p271:32:32-p272:64:64-i64:64-i128:128-f80:128-n8:16:32:64-S128"
target triple = "x86_64-pc-linux-gnu"

%class.TransTableL = type { %class.TransTable, i32, i32, i32, i32, i32, i32, %"struct.TransTableL::pageStatsType", [8192 x %"struct.TransTableL::aggrType"], [12 x [4 x ptr]], [12 x [4 x ptr]], ptr, ptr, %"struct.TransTableL::harvestedType", i32, i32 }
%class.TransTable = type { ptr }
%"struct.TransTableL::pageStatsType" = type { i32, i32, i32, i32, i32 }
%"struct.TransTableL::aggrType" = type { [4 x i32], [4 x [4 x i32]] }
%"struct.TransTableL::harvestedType" = type { i32, [1000 x ptr] }

@_ZL13_constantsSet = internal global i8 0, align 1
@_ZL12TTlowestRank = internal global [8192 x i32] zeroinitializer, align 16
@_ZL9maskBytes = internal global [8192 x [4 x [4 x i32]]] zeroinitializer, align 16

; Function Attrs: mustprogress nounwind uwtable
define linkonce_odr void @_ZN10TransTableD2Ev(ptr noundef nonnull align 8 dereferenceable(8) %0) unnamed_addr #5 comdat align 2 {
  %2 = alloca ptr, align 8
  store ptr %0, ptr %2, align 8
  ret void
}

; Function Attrs: mustprogress nounwind uwtable
define void @_ZN11TransTableL12SetConstantsEv(ptr noundef nonnull align 8 dereferenceable(664216) %0) #5 align 2 {
  %2 = alloca ptr, align 8
  %3 = alloca i32, align 4
  %4 = alloca [8192 x i32], align 16
  %5 = alloca i32, align 4
  store ptr %0, ptr %2, align 8
  store i32 1, ptr %3, align 4
  store i32 15, ptr @_ZL12TTlowestRank, align 16
  %6 = getelementptr inbounds [8192 x i32], ptr %4, i64 0, i64 0
  store i32 0, ptr %6, align 16
  store i32 1, ptr %5, align 4
  br label %7

7:                                                ; preds = %217, %1
  %8 = load i32, ptr %5, align 4
  %9 = icmp ult i32 %8, 8192
  br i1 %9, label %10, label %220

10:                                               ; preds = %7
  %11 = load i32, ptr %5, align 4
  %12 = load i32, ptr %3, align 4
  %13 = load i32, ptr %3, align 4
  %14 = add i32 %12, %13
  %15 = icmp uge i32 %11, %14
  br i1 %15, label %16, label %19

16:                                               ; preds = %10
  %17 = load i32, ptr %3, align 4
  %18 = shl i32 %17, 1
  store i32 %18, ptr %3, align 4
  br label %19

19:                                               ; preds = %16, %10
  %20 = load i32, ptr %5, align 4
  %21 = load i32, ptr %3, align 4
  %22 = xor i32 %20, %21
  %23 = zext i32 %22 to i64
  %24 = getelementptr inbounds [8192 x i32], ptr %4, i64 0, i64 %23
  %25 = load i32, ptr %24, align 4
  %26 = lshr i32 %25, 2
  %27 = or i32 %26, 50331648
  %28 = load i32, ptr %5, align 4
  %29 = zext i32 %28 to i64
  %30 = getelementptr inbounds [8192 x i32], ptr %4, i64 0, i64 %29
  store i32 %27, ptr %30, align 4
  %31 = load i32, ptr %5, align 4
  %32 = zext i32 %31 to i64
  %33 = getelementptr inbounds [8192 x i32], ptr %4, i64 0, i64 %32
  %34 = load i32, ptr %33, align 4
  %35 = shl i32 %34, 6
  %36 = and i32 %35, -16777216
  %37 = load i32, ptr %5, align 4
  %38 = zext i32 %37 to i64
  %39 = getelementptr inbounds [8192 x [4 x [4 x i32]]], ptr @_ZL9maskBytes, i64 0, i64 %38
  %40 = getelementptr inbounds [4 x [4 x i32]], ptr %39, i64 0, i64 0
  %41 = getelementptr inbounds [4 x i32], ptr %40, i64 0, i64 0
  store i32 %36, ptr %41, align 16
  %42 = load i32, ptr %5, align 4
  %43 = zext i32 %42 to i64
  %44 = getelementptr inbounds [8192 x i32], ptr %4, i64 0, i64 %43
  %45 = load i32, ptr %44, align 4
  %46 = shl i32 %45, 14
  %47 = and i32 %46, -16777216
  %48 = load i32, ptr %5, align 4
  %49 = zext i32 %48 to i64
  %50 = getelementptr inbounds [8192 x [4 x [4 x i32]]], ptr @_ZL9maskBytes, i64 0, i64 %49
  %51 = getelementptr inbounds [4 x [4 x i32]], ptr %50, i64 0, i64 0
  %52 = getelementptr inbounds [4 x i32], ptr %51, i64 0, i64 1
  store i32 %47, ptr %52, align 4
  %53 = load i32, ptr %5, align 4
  %54 = zext i32 %53 to i64
  %55 = getelementptr inbounds [8192 x i32], ptr %4, i64 0, i64 %54
  %56 = load i32, ptr %55, align 4
  %57 = shl i32 %56, 22
  %58 = and i32 %57, -16777216
  %59 = load i32, ptr %5, align 4
  %60 = zext i32 %59 to i64
  %61 = getelementptr inbounds [8192 x [4 x [4 x i32]]], ptr @_ZL9maskBytes, i64 0, i64 %60
  %62 = getelementptr inbounds [4 x [4 x i32]], ptr %61, i64 0, i64 0
  %63 = getelementptr inbounds [4 x i32], ptr %62, i64 0, i64 2
  store i32 %58, ptr %63, align 8
  %64 = load i32, ptr %5, align 4
  %65 = zext i32 %64 to i64
  %66 = getelementptr inbounds [8192 x i32], ptr %4, i64 0, i64 %65
  %67 = load i32, ptr %66, align 4
  %68 = shl i32 %67, 30
  %69 = and i32 %68, -16777216
  %70 = load i32, ptr %5, align 4
  %71 = zext i32 %70 to i64
  %72 = getelementptr inbounds [8192 x [4 x [4 x i32]]], ptr @_ZL9maskBytes, i64 0, i64 %71
  %73 = getelementptr inbounds [4 x [4 x i32]], ptr %72, i64 0, i64 0
  %74 = getelementptr inbounds [4 x i32], ptr %73, i64 0, i64 3
  store i32 %69, ptr %74, align 4
  %75 = load i32, ptr %5, align 4
  %76 = zext i32 %75 to i64
  %77 = getelementptr inbounds [8192 x i32], ptr %4, i64 0, i64 %76
  %78 = load i32, ptr %77, align 4
  %79 = lshr i32 %78, 2
  %80 = and i32 %79, 16711680
  %81 = load i32, ptr %5, align 4
  %82 = zext i32 %81 to i64
  %83 = getelementptr inbounds [8192 x [4 x [4 x i32]]], ptr @_ZL9maskBytes, i64 0, i64 %82
  %84 = getelementptr inbounds [4 x [4 x i32]], ptr %83, i64 0, i64 1
  %85 = getelementptr inbounds [4 x i32], ptr %84, i64 0, i64 0
  store i32 %80, ptr %85, align 16
  %86 = load i32, ptr %5, align 4
  %87 = zext i32 %86 to i64
  %88 = getelementptr inbounds [8192 x i32], ptr %4, i64 0, i64 %87
  %89 = load i32, ptr %88, align 4
  %90 = shl i32 %89, 6
  %91 = and i32 %90, 16711680
  %92 = load i32, ptr %5, align 4
  %93 = zext i32 %92 to i64
  %94 = getelementptr inbounds [8192 x [4 x [4 x i32]]], ptr @_ZL9maskBytes, i64 0, i64 %93
  %95 = getelementptr inbounds [4 x [4 x i32]], ptr %94, i64 0, i64 1
  %96 = getelementptr inbounds [4 x i32], ptr %95, i64 0, i64 1
  store i32 %91, ptr %96, align 4
  %97 = load i32, ptr %5, align 4
  %98 = zext i32 %97 to i64
  %99 = getelementptr inbounds [8192 x i32], ptr %4, i64 0, i64 %98
  %100 = load i32, ptr %99, align 4
  %101 = shl i32 %100, 14
  %102 = and i32 %101, 16711680
  %103 = load i32, ptr %5, align 4
  %104 = zext i32 %103 to i64
  %105 = getelementptr inbounds [8192 x [4 x [4 x i32]]], ptr @_ZL9maskBytes, i64 0, i64 %104
  %106 = getelementptr inbounds [4 x [4 x i32]], ptr %105, i64 0, i64 1
  %107 = getelementptr inbounds [4 x i32], ptr %106, i64 0, i64 2
  store i32 %102, ptr %107, align 8
  %108 = load i32, ptr %5, align 4
  %109 = zext i32 %108 to i64
  %110 = getelementptr inbounds [8192 x i32], ptr %4, i64 0, i64 %109
  %111 = load i32, ptr %110, align 4
  %112 = shl i32 %111, 22
  %113 = and i32 %112, 16711680
  %114 = load i32, ptr %5, align 4
  %115 = zext i32 %114 to i64
  %116 = getelementptr inbounds [8192 x [4 x [4 x i32]]], ptr @_ZL9maskBytes, i64 0, i64 %115
  %117 = getelementptr inbounds [4 x [4 x i32]], ptr %116, i64 0, i64 1
  %118 = getelementptr inbounds [4 x i32], ptr %117, i64 0, i64 3
  store i32 %113, ptr %118, align 4
  %119 = load i32, ptr %5, align 4
  %120 = zext i32 %119 to i64
  %121 = getelementptr inbounds [8192 x i32], ptr %4, i64 0, i64 %120
  %122 = load i32, ptr %121, align 4
  %123 = lshr i32 %122, 10
  %124 = and i32 %123, 65280
  %125 = load i32, ptr %5, align 4
  %126 = zext i32 %125 to i64
  %127 = getelementptr inbounds [8192 x [4 x [4 x i32]]], ptr @_ZL9maskBytes, i64 0, i64 %126
  %128 = getelementptr inbounds [4 x [4 x i32]], ptr %127, i64 0, i64 2
  %129 = getelementptr inbounds [4 x i32], ptr %128, i64 0, i64 0
  store i32 %124, ptr %129, align 16
  %130 = load i32, ptr %5, align 4
  %131 = zext i32 %130 to i64
  %132 = getelementptr inbounds [8192 x i32], ptr %4, i64 0, i64 %131
  %133 = load i32, ptr %132, align 4
  %134 = lshr i32 %133, 2
  %135 = and i32 %134, 65280
  %136 = load i32, ptr %5, align 4
  %137 = zext i32 %136 to i64
  %138 = getelementptr inbounds [8192 x [4 x [4 x i32]]], ptr @_ZL9maskBytes, i64 0, i64 %137
  %139 = getelementptr inbounds [4 x [4 x i32]], ptr %138, i64 0, i64 2
  %140 = getelementptr inbounds [4 x i32], ptr %139, i64 0, i64 1
  store i32 %135, ptr %140, align 4
  %141 = load i32, ptr %5, align 4
  %142 = zext i32 %141 to i64
  %143 = getelementptr inbounds [8192 x i32], ptr %4, i64 0, i64 %142
  %144 = load i32, ptr %143, align 4
  %145 = shl i32 %144, 6
  %146 = and i32 %145, 65280
  %147 = load i32, ptr %5, align 4
  %148 = zext i32 %147 to i64
  %149 = getelementptr inbounds [8192 x [4 x [4 x i32]]], ptr @_ZL9maskBytes, i64 0, i64 %148
  %150 = getelementptr inbounds [4 x [4 x i32]], ptr %149, i64 0, i64 2
  %151 = getelementptr inbounds [4 x i32], ptr %150, i64 0, i64 2
  store i32 %146, ptr %151, align 8
  %152 = load i32, ptr %5, align 4
  %153 = zext i32 %152 to i64
  %154 = getelementptr inbounds [8192 x i32], ptr %4, i64 0, i64 %153
  %155 = load i32, ptr %154, align 4
  %156 = shl i32 %155, 14
  %157 = and i32 %156, 65280
  %158 = load i32, ptr %5, align 4
  %159 = zext i32 %158 to i64
  %160 = getelementptr inbounds [8192 x [4 x [4 x i32]]], ptr @_ZL9maskBytes, i64 0, i64 %159
  %161 = getelementptr inbounds [4 x [4 x i32]], ptr %160, i64 0, i64 2
  %162 = getelementptr inbounds [4 x i32], ptr %161, i64 0, i64 3
  store i32 %157, ptr %162, align 4
  %163 = load i32, ptr %5, align 4
  %164 = zext i32 %163 to i64
  %165 = getelementptr inbounds [8192 x i32], ptr %4, i64 0, i64 %164
  %166 = load i32, ptr %165, align 4
  %167 = lshr i32 %166, 18
  %168 = and i32 %167, 255
  %169 = load i32, ptr %5, align 4
  %170 = zext i32 %169 to i64
  %171 = getelementptr inbounds [8192 x [4 x [4 x i32]]], ptr @_ZL9maskBytes, i64 0, i64 %170
  %172 = getelementptr inbounds [4 x [4 x i32]], ptr %171, i64 0, i64 3
  %173 = getelementptr inbounds [4 x i32], ptr %172, i64 0, i64 0
  store i32 %168, ptr %173, align 16
  %174 = load i32, ptr %5, align 4
  %175 = zext i32 %174 to i64
  %176 = getelementptr inbounds [8192 x i32], ptr %4, i64 0, i64 %175
  %177 = load i32, ptr %176, align 4
  %178 = lshr i32 %177, 10
  %179 = and i32 %178, 255
  %180 = load i32, ptr %5, align 4
  %181 = zext i32 %180 to i64
  %182 = getelementptr inbounds [8192 x [4 x [4 x i32]]], ptr @_ZL9maskBytes, i64 0, i64 %181
  %183 = getelementptr inbounds [4 x [4 x i32]], ptr %182, i64 0, i64 3
  %184 = getelementptr inbounds [4 x i32], ptr %183, i64 0, i64 1
  store i32 %179, ptr %184, align 4
  %185 = load i32, ptr %5, align 4
  %186 = zext i32 %185 to i64
  %187 = getelementptr inbounds [8192 x i32], ptr %4, i64 0, i64 %186
  %188 = load i32, ptr %187, align 4
  %189 = lshr i32 %188, 2
  %190 = and i32 %189, 255
  %191 = load i32, ptr %5, align 4
  %192 = zext i32 %191 to i64
  %193 = getelementptr inbounds [8192 x [4 x [4 x i32]]], ptr @_ZL9maskBytes, i64 0, i64 %192
  %194 = getelementptr inbounds [4 x [4 x i32]], ptr %193, i64 0, i64 3
  %195 = getelementptr inbounds [4 x i32], ptr %194, i64 0, i64 2
  store i32 %190, ptr %195, align 8
  %196 = load i32, ptr %5, align 4
  %197 = zext i32 %196 to i64
  %198 = getelementptr inbounds [8192 x i32], ptr %4, i64 0, i64 %197
  %199 = load i32, ptr %198, align 4
  %200 = shl i32 %199, 6
  %201 = and i32 %200, 255
  %202 = load i32, ptr %5, align 4
  %203 = zext i32 %202 to i64
  %204 = getelementptr inbounds [8192 x [4 x [4 x i32]]], ptr @_ZL9maskBytes, i64 0, i64 %203
  %205 = getelementptr inbounds [4 x [4 x i32]], ptr %204, i64 0, i64 3
  %206 = getelementptr inbounds [4 x i32], ptr %205, i64 0, i64 3
  store i32 %201, ptr %206, align 4
  %207 = load i32, ptr %5, align 4
  %208 = load i32, ptr %3, align 4
  %209 = xor i32 %207, %208
  %210 = zext i32 %209 to i64
  %211 = getelementptr inbounds [8192 x i32], ptr @_ZL12TTlowestRank, i64 0, i64 %210
  %212 = load i32, ptr %211, align 4
  %213 = sub nsw i32 %212, 1
  %214 = load i32, ptr %5, align 4
  %215 = zext i32 %214 to i64
  %216 = getelementptr inbounds [8192 x i32], ptr @_ZL12TTlowestRank, i64 0, i64 %215
  store i32 %213, ptr %216, align 4
  br label %217

217:                                              ; preds = %19
  %218 = load i32, ptr %5, align 4
  %219 = add i32 %218, 1
  store i32 %219, ptr %5, align 4
  br label %7, !llvm.loop !4

220:                                              ; preds = %7
  ret void
}

; Function Attrs: mustprogress nounwind uwtable
define linkonce_odr void @_ZN10TransTableC2Ev(ptr noundef nonnull align 8 dereferenceable(8) %0) unnamed_addr #5 comdat align 2 {
  %2 = alloca ptr, align 8
  store ptr %0, ptr %2, align 8
  %3 = load ptr, ptr %2, align 8
  store ptr getelementptr inbounds inrange(-16, 208) ({ [28 x ptr] }, ptr @_ZTV10TransTable, i32 0, i32 0, i32 2), ptr %3, align 8
  ret void
}

; Function Attrs: mustprogress uwtable
define void @_ZN11TransTableLC2Ev(ptr noundef nonnull align 8 dereferenceable(664216) %0) unnamed_addr #4 align 2 personality ptr @__gxx_personality_v0 {
  %2 = alloca ptr, align 8
  %3 = alloca ptr, align 8
  %4 = alloca i32, align 4
  store ptr %0, ptr %2, align 8
  %5 = load ptr, ptr %2, align 8
  call void @_ZN10TransTableC2Ev(ptr noundef nonnull align 8 dereferenceable(8) %5)
  store ptr getelementptr inbounds inrange(-16, 208) ({ [28 x ptr] }, ptr @_ZTV11TransTableL, i32 0, i32 0, i32 2), ptr %5, align 8
  %6 = load i8, ptr @_ZL13_constantsSet, align 1
  %7 = trunc i8 %6 to i1
  br i1 %7, label %14, label %8

8:                                                ; preds = %1
  store i8 1, ptr @_ZL13_constantsSet, align 1
  invoke void @_ZN11TransTableL12SetConstantsEv(ptr noundef nonnull align 8 dereferenceable(664216) %5)
          to label %9 unwind label %10

9:                                                ; preds = %8
  br label %14

10:                                               ; preds = %8
  %11 = landingpad { ptr, i32 }
          cleanup
  %12 = extractvalue { ptr, i32 } %11, 0
  store ptr %12, ptr %3, align 8
  %13 = extractvalue { ptr, i32 } %11, 1
  store i32 %13, ptr %4, align 4
  call void @_ZN10TransTableD2Ev(ptr noundef nonnull align 8 dereferenceable(8) %5) #3
  br label %36

14:                                               ; preds = %9, %1
  %15 = getelementptr inbounds nuw %class.TransTableL, ptr %5, i32 0, i32 11
  store ptr null, ptr %15, align 8
  %16 = getelementptr inbounds nuw %class.TransTableL, ptr %5, i32 0, i32 2
  store i32 15, ptr %16, align 4
  %17 = getelementptr inbounds nuw %class.TransTableL, ptr %5, i32 0, i32 4
  store i32 25, ptr %17, align 4
  %18 = getelementptr inbounds nuw %class.TransTableL, ptr %5, i32 0, i32 3
  store i32 0, ptr %18, align 8
  %19 = getelementptr inbounds nuw %class.TransTableL, ptr %5, i32 0, i32 1
  store i32 0, ptr %19, align 8
  %20 = getelementptr inbounds nuw %class.TransTableL, ptr %5, i32 0, i32 5
  store i32 8, ptr %20, align 8
  %21 = getelementptr inbounds nuw %class.TransTableL, ptr %5, i32 0, i32 6
  store i32 0, ptr %21, align 4
  %22 = getelementptr inbounds nuw %class.TransTableL, ptr %5, i32 0, i32 13
  %23 = getelementptr inbounds nuw %"struct.TransTableL::harvestedType", ptr %22, i32 0, i32 0
  store i32 0, ptr %23, align 8
  %24 = getelementptr inbounds nuw %class.TransTableL, ptr %5, i32 0, i32 14
  store i32 0, ptr %24, align 8
  %25 = getelementptr inbounds nuw %class.TransTableL, ptr %5, i32 0, i32 7
  %26 = getelementptr inbounds nuw %"struct.TransTableL::pageStatsType", ptr %25, i32 0, i32 0
  store i32 0, ptr %26, align 8
  %27 = getelementptr inbounds nuw %class.TransTableL, ptr %5, i32 0, i32 7
  %28 = getelementptr inbounds nuw %"struct.TransTableL::pageStatsType", ptr %27, i32 0, i32 1
  store i32 0, ptr %28, align 4
  %29 = getelementptr inbounds nuw %class.TransTableL, ptr %5, i32 0, i32 7
  %30 = getelementptr inbounds nuw %"struct.TransTableL::pageStatsType", ptr %29, i32 0, i32 2
  store i32 0, ptr %30, align 8
  %31 = getelementptr inbounds nuw %class.TransTableL, ptr %5, i32 0, i32 7
  %32 = getelementptr inbounds nuw %"struct.TransTableL::pageStatsType", ptr %31, i32 0, i32 3
  store i32 0, ptr %32, align 4
  %33 = getelementptr inbounds nuw %class.TransTableL, ptr %5, i32 0, i32 7
  %34 = getelementptr inbounds nuw %"struct.TransTableL::pageStatsType", ptr %33, i32 0, i32 4
  store i32 0, ptr %34, align 8
  %35 = getelementptr inbounds nuw %class.TransTableL, ptr %5, i32 0, i32 15
  store i32 0, ptr %35, align 4
  ret void

36:                                               ; preds = %10
  %37 = load ptr, ptr %3, align 8
  %38 = load i32, ptr %4, align 4
  %39 = insertvalue { ptr, i32 } poison, ptr %37, 0
  %40 = insertvalue { ptr, i32 } %39, i32 %38, 1
  resume { ptr, i32 } %40
}