; Function Attrs: mustprogress nofree norecurse nosync nounwind memory(readwrite, argmem: write, inaccessiblemem: none) uwtable
define void @_ZN11TransTableLC2Ev(ptr nocapture noundef nonnull writeonly align 8 dereferenceable(664216) %0) unnamed_addr #4 align 2 personality ptr @__gxx_personality_v0 {
  %2 = alloca [8192 x i32], align 16
  store ptr getelementptr inbounds inrange(-16, 208) (i8, ptr @_ZTV11TransTableL, i64 16), ptr %0, align 8
  %.b1 = load i1, ptr @_ZL13_constantsSet, align 1
  br i1 %.b1, label %57, label %3

3:                                                ; preds = %1
  store i1 true, ptr @_ZL13_constantsSet, align 1
  call void @llvm.lifetime.start.p0(i64 32768, ptr nonnull %2)
  store i32 15, ptr @_ZL12TTlowestRank, align 16
  store i32 0, ptr %2, align 16
  br label %4

4:                                                ; preds = %4, %3
  %indvars.iv.i = phi i64 [ 1, %3 ], [ %indvars.iv.next.i, %4 ]
  %.04445.i = phi i32 [ 1, %3 ], [ %spec.select.i, %4 ]
  %5 = shl i32 %.04445.i, 1
  %6 = zext i32 %5 to i64
  %.not.i = icmp ult i64 %indvars.iv.i, %6
  %spec.select.i = select i1 %.not.i, i32 %.04445.i, i32 %5
  %7 = trunc nuw nsw i64 %indvars.iv.i to i32
  %8 = xor i32 %spec.select.i, %7
  %9 = zext i32 %8 to i64
  %10 = getelementptr inbounds [8192 x i32], ptr %2, i64 0, i64 %9
  %11 = load i32, ptr %10, align 4
  %12 = lshr i32 %11, 2
  %13 = or i32 %12, 50331648
  %14 = getelementptr inbounds [8192 x i32], ptr %2, i64 0, i64 %indvars.iv.i
  store i32 %13, ptr %14, align 4
  %15 = shl i32 %13, 6
  %16 = and i32 %15, -16777216
  %17 = getelementptr inbounds [8192 x [4 x [4 x i32]]], ptr @_ZL9maskBytes, i64 0, i64 %indvars.iv.i
  store i32 %16, ptr %17, align 16
  %18 = shl i32 %12, 14
  %19 = and i32 %18, -16777216
  %20 = getelementptr inbounds i8, ptr %17, i64 4
  store i32 %19, ptr %20, align 4
  %21 = shl i32 %12, 22
  %22 = and i32 %21, -16777216
  %23 = getelementptr inbounds i8, ptr %17, i64 8
  store i32 %22, ptr %23, align 8
  %24 = shl i32 %12, 30
  %25 = getelementptr inbounds i8, ptr %17, i64 12
  store i32 %24, ptr %25, align 4
  %26 = lshr i32 %13, 2
  %27 = and i32 %26, 16711680
  %28 = getelementptr inbounds i8, ptr %17, i64 16
  store i32 %27, ptr %28, align 16
  %29 = and i32 %15, 16711680
  %30 = getelementptr inbounds i8, ptr %17, i64 20
  store i32 %29, ptr %30, align 4
  %31 = and i32 %18, 16711680
  %32 = getelementptr inbounds i8, ptr %17, i64 24
  store i32 %31, ptr %32, align 8
  %33 = and i32 %21, 12582912
  %34 = getelementptr inbounds i8, ptr %17, i64 28
  store i32 %33, ptr %34, align 4
  %35 = lshr i32 %13, 10
  %36 = and i32 %35, 65280
  %37 = getelementptr inbounds i8, ptr %17, i64 32
  store i32 %36, ptr %37, align 16
  %38 = and i32 %26, 65280
  %39 = getelementptr inbounds i8, ptr %17, i64 36
  store i32 %38, ptr %39, align 4
  %40 = and i32 %15, 65280
  %41 = getelementptr inbounds i8, ptr %17, i64 40
  store i32 %40, ptr %41, align 8
  %42 = and i32 %18, 49152
  %43 = getelementptr inbounds i8, ptr %17, i64 44
  store i32 %42, ptr %43, align 4
  %44 = lshr i32 %13, 18
  %45 = and i32 %44, 255
  %46 = getelementptr inbounds i8, ptr %17, i64 48
  store i32 %45, ptr %46, align 16
  %47 = and i32 %35, 255
  %48 = getelementptr inbounds i8, ptr %17, i64 52
  store i32 %47, ptr %48, align 4
  %49 = and i32 %26, 255
  %50 = getelementptr inbounds i8, ptr %17, i64 56
  store i32 %49, ptr %50, align 8
  %51 = and i32 %15, 192
  %52 = getelementptr inbounds i8, ptr %17, i64 60
  store i32 %51, ptr %52, align 4
  %53 = getelementptr inbounds [8192 x i32], ptr @_ZL12TTlowestRank, i64 0, i64 %9
  %54 = load i32, ptr %53, align 4
  %55 = add nsw i32 %54, -1
  %56 = getelementptr inbounds [8192 x i32], ptr @_ZL12TTlowestRank, i64 0, i64 %indvars.iv.i
  store i32 %55, ptr %56, align 4
  %indvars.iv.next.i = add nuw nsw i64 %indvars.iv.i, 1
  %exitcond.not.i = icmp eq i64 %indvars.iv.next.i, 8192
  br i1 %exitcond.not.i, label %_ZN11TransTableL12SetConstantsEv.exit, label %4, !llvm.loop !6

_ZN11TransTableL12SetConstantsEv.exit:            ; preds = %4
  call void @llvm.lifetime.end.p0(i64 32768, ptr nonnull %2)
  br label %57

57:                                               ; preds = %_ZN11TransTableL12SetConstantsEv.exit, %1
  %58 = getelementptr inbounds nuw i8, ptr %0, i64 656184
  store ptr null, ptr %58, align 8
  %59 = getelementptr inbounds nuw i8, ptr %0, i64 12
  store i32 15, ptr %59, align 4
  %60 = getelementptr inbounds nuw i8, ptr %0, i64 20
  store i32 25, ptr %60, align 4
  %61 = getelementptr inbounds nuw i8, ptr %0, i64 16
  store i32 0, ptr %61, align 8
  %62 = getelementptr inbounds nuw i8, ptr %0, i64 8
  store i32 0, ptr %62, align 8
  %63 = getelementptr inbounds nuw i8, ptr %0, i64 24
  store i32 8, ptr %63, align 8
  %64 = getelementptr inbounds nuw i8, ptr %0, i64 28
  %65 = getelementptr inbounds nuw i8, ptr %0, i64 656200
  store i32 0, ptr %65, align 8
  %66 = getelementptr inbounds nuw i8, ptr %0, i64 664208
  store i32 0, ptr %66, align 8
  %67 = getelementptr inbounds nuw i8, ptr %0, i64 664212
  store i32 0, ptr %67, align 4
  tail call void @llvm.memset.p0.i64(ptr noundef nonnull align 4 dereferenceable(24) %64, i8 0, i64 24, i1 false)
  ret void
}